target datalayout = "e-m:e-p270:32:32-p271:32:32-p272:64:64-i64:64-i128:128-f80:128-n8:16:32:64-S128"
target triple = "x86_64-pc-linux-gnu"

%class.int3 = type { i32, i32, i32 }

; Function Attrs: mustprogress nounwind uwtable
define linkonce_odr dso_local noundef nonnull align 4 dereferenceable(4) ptr @_ZNK4int3ixEi(ptr noundef nonnull align 4 dereferenceable(12) %0, i32 noundef %1) #1 comdat align 2 {
  %3 = alloca ptr, align 8
  %4 = alloca i32, align 4
  store ptr %0, ptr %3, align 8, !tbaa !59
  store i32 %1, ptr %4, align 4, !tbaa !9
  %5 = load ptr, ptr %3, align 8
  %6 = getelementptr inbounds nuw %class.int3, ptr %5, i32 0, i32 0
  %7 = load i32, ptr %4, align 4, !tbaa !9
  %8 = sext i32 %7 to i64
  %9 = getelementptr inbounds i32, ptr %6, i64 %8
  ret ptr %9
}

; Function Attrs: mustprogress uwtable
define dso_local noundef i32 @_Z7hasvertRK4int3i(ptr noundef nonnull align 4 dereferenceable(12) %0, i32 noundef %1) #8 {
  %3 = alloca ptr, align 8
  %4 = alloca i32, align 4
  store ptr %0, ptr %3, align 8, !tbaa !59
  store i32 %1, ptr %4, align 4, !tbaa !9
  %5 = load ptr, ptr %3, align 8, !tbaa !59
  %6 = call noundef nonnull align 4 dereferenceable(4) ptr @_ZNK4int3ixEi(ptr noundef nonnull align 4 dereferenceable(12) %5, i32 noundef 0)
  %7 = load i32, ptr %6, align 4, !tbaa !9
  %8 = load i32, ptr %4, align 4, !tbaa !9
  %9 = icmp eq i32 %7, %8
  br i1 %9, label %22, label %10

10:                                               ; preds = %2
  %11 = load ptr, ptr %3, align 8, !tbaa !59
  %12 = call noundef nonnull align 4 dereferenceable(4) ptr @_ZNK4int3ixEi(ptr noundef nonnull align 4 dereferenceable(12) %11, i32 noundef 1)
  %13 = load i32, ptr %12, align 4, !tbaa !9
  %14 = load i32, ptr %4, align 4, !tbaa !9
  %15 = icmp eq i32 %13, %14
  br i1 %15, label %22, label %16

16:                                               ; preds = %10
  %17 = load ptr, ptr %3, align 8, !tbaa !59
  %18 = call noundef nonnull align 4 dereferenceable(4) ptr @_ZNK4int3ixEi(ptr noundef nonnull align 4 dereferenceable(12) %17, i32 noundef 2)
  %19 = load i32, ptr %18, align 4, !tbaa !9
  %20 = load i32, ptr %4, align 4, !tbaa !9
  %21 = icmp eq i32 %19, %20
  br label %22

22:                                               ; preds = %16, %10, %2
  %23 = phi i1 [ true, %10 ], [ true, %2 ], [ %21, %16 ]
  %24 = zext i1 %23 to i32
  ret i32 %24
}