; Function Attrs: mustprogress nofree norecurse nosync nounwind willreturn memory(argmem: read) uwtable
define dso_local noundef range(i32 0, 2) i32 @_Z7hasvertRK4int3i(ptr noundef nonnull readonly align 4 captures(none) dereferenceable(12) %0, i32 noundef %1) local_unnamed_addr #7 {
  %3 = load i32, ptr %0, align 4, !tbaa !46
  %4 = icmp eq i32 %3, %1
  %5 = getelementptr inbounds nuw i8, ptr %0, i64 4
  %6 = load i32, ptr %5, align 4
  %7 = icmp eq i32 %6, %1
  %or.cond = select i1 %4, i1 true, i1 %7
  %8 = getelementptr inbounds nuw i8, ptr %0, i64 8
  %9 = load i32, ptr %8, align 4
  %10 = icmp eq i32 %9, %1
  %narrow = select i1 %or.cond, i1 true, i1 %10
  %11 = zext i1 %narrow to i32
  ret i32 %11
}